(dp0
S'METTS MARK'
p1
(dp2
S'to_messages'
p3
I807
sS'deferral_payments'
p4
S'NaN'
p5
sS'expenses'
p6
I94299
sS'poi'
p7
I00
sS'deferred_income'
p8
g5
sS'email_address'
p9
S'mark.metts@enron.com'
p10
sS'long_term_incentive'
p11
g5
sS'fraction_from_poi'
p12
I0
sS'restricted_stock_deferred'
p13
g5
sS'shared_receipt_with_poi'
p14
I702
sS'loan_advances'
p15
g5
sS'from_messages'
p16
I29
sS'other'
p17
I1740
sS'director_fees'
p18
g5
sS'bonus'
p19
I600000
sS'total_stock_value'
p20
I585062
sS'from_poi_to_this_person'
p21
I38
sS'from_this_person_to_poi'
p22
I1
sS'restricted_stock'
p23
I585062
sS'salary'
p24
I365788
sS'total_payments'
p25
I1061827
sS'fraction_to_poi'
p26
I0
sS'exercised_stock_options'
p27
g5
ssS'BAXTER JOHN C'
p28
(dp29
g3
g5
sg4
I1295738
sg6
I11200
sg7
I00
sg8
I-1386055
sg9
g5
sg11
I1586055
sg12
F0.0
sg13
g5
sg14
g5
sg15
g5
sg16
g5
sg17
I2660303
sg18
g5
sg19
I1200000
sg20
I10623258
sg21
g5
sg22
g5
sg23
I3942714
sg24
I267102
sg25
I5634343
sg26
F0.0
sg27
I6680544
ssS'ELLIOTT STEVEN'
p30
(dp31
g3
g5
sg4
g5
sg6
I78552
sg7
I00
sg8
I-400729
sg9
S'steven.elliott@enron.com'
p32
sg11
g5
sg12
F0.0
sg13
g5
sg14
g5
sg15
g5
sg16
g5
sg17
I12961
sg18
g5
sg19
I350000
sg20
I6678735
sg21
g5
sg22
g5
sg23
I1788391
sg24
I170941
sg25
I211725
sg26
F0.0
sg27
I4890344
ssS'CORDES WILLIAM R'
p33
(dp34
g3
I764
sg4
g5
sg6
g5
sg7
I00
sg8
g5
sg9
S'bill.cordes@enron.com'
p35
sg11
g5
sg12
I0
sg13
g5
sg14
I58
sg15
g5
sg16
I12
sg17
g5
sg18
g5
sg19
g5
sg20
I1038185
sg21
I10
sg22
I0
sg23
I386335
sg24
g5
sg25
g5
sg26
I0
sg27
I651850
ssS'HANNON KEVIN P'
p36
(dp37
g3
I1045
sg4
g5
sg6
I34039
sg7
I01
sg8
I-3117011
sg9
S'kevin.hannon@enron.com'
p38
sg11
I1617011
sg12
I0
sg13
g5
sg14
I1035
sg15
g5
sg16
I32
sg17
I11350
sg18
g5
sg19
I1500000
sg20
I6391065
sg21
I32
sg22
I21
sg23
I853064
sg24
I243293
sg25
I288682
sg26
I0
sg27
I5538001
ssS'MORDAUNT KRISTINA M'
p39
(dp40
g3
g5
sg4
g5
sg6
I35018
sg7
I00
sg8
g5
sg9
S'kristina.mordaunt@enron.com'
p41
sg11
g5
sg12
F0.0
sg13
g5
sg14
g5
sg15
g5
sg16
g5
sg17
I1411
sg18
g5
sg19
I325000
sg20
I208510
sg21
g5
sg22
g5
sg23
I208510
sg24
I267093
sg25
I628522
sg26
F0.0
sg27
g5
ssS'MEYER ROCKFORD G'
p42
(dp43
g3
I232
sg4
I1848227
sg6
g5
sg7
I00
sg8
g5
sg9
S'rockford.meyer@enron.com'
p44
sg11
g5
sg12
I0
sg13
g5
sg14
I22
sg15
g5
sg16
I28
sg17
g5
sg18
g5
sg19
g5
sg20
I955873
sg21
I0
sg22
I0
sg23
I462384
sg24
g5
sg25
I1848227
sg26
I0
sg27
I493489
ssS'MCMAHON JEFFREY'
p45
(dp46
g3
I2355
sg4
g5
sg6
I137108
sg7
I00
sg8
g5
sg9
S'jeffrey.mcmahon@enron.com'
p47
sg11
I694862
sg12
I0
sg13
g5
sg14
I2228
sg15
g5
sg16
I48
sg17
I297353
sg18
g5
sg19
I2600000
sg20
I1662855
sg21
I58
sg22
I26
sg23
I558801
sg24
I370448
sg25
I4099771
sg26
I0
sg27
I1104054
ssS'HORTON STANLEY C'
p48
(dp49
g3
I2350
sg4
I3131860
sg6
g5
sg7
I00
sg8
g5
sg9
S'stanley.horton@enron.com'
p50
sg11
g5
sg12
I0
sg13
g5
sg14
I1074
sg15
g5
sg16
I1073
sg17
g5
sg18
g5
sg19
g5
sg20
I7256648
sg21
I44
sg22
I15
sg23
I2046079
sg24
g5
sg25
I3131860
sg26
I0
sg27
I5210569
ssS'PIPER GREGORY F'
p51
(dp52
g3
I1238
sg4
I1130036
sg6
I43057
sg7
I00
sg8
I-33333
sg9
S'greg.piper@enron.com'
p53
sg11
g5
sg12
I0
sg13
I-409554
sg14
I742
sg15
g5
sg16
I222
sg17
I778
sg18
g5
sg19
I400000
sg20
I880290
sg21
I61
sg22
I48
sg23
I409554
sg24
I197091
sg25
I1737629
sg26
I0
sg27
I880290
ssS'HUMPHREY GENE E'
p54
(dp55
g3
I128
sg4
I2964506
sg6
I4994
sg7
I00
sg8
g5
sg9
S'gene.humphrey@enron.com'
p56
sg11
g5
sg12
I0
sg13
g5
sg14
I119
sg15
g5
sg16
I17
sg17
g5
sg18
g5
sg19
g5
sg20
I2282768
sg21
I10
sg22
I17
sg23
g5
sg24
I130724
sg25
I3100224
sg26
I1
sg27
I2282768
ssS'UMANOFF ADAM S'
p57
(dp58
g3
I111
sg4
g5
sg6
I53122
sg7
I00
sg8
g5
sg9
S'adam.umanoff@enron.com'
p59
sg11
g5
sg12
I0
sg13
g5
sg14
I41
sg15
g5
sg16
I18
sg17
g5
sg18
g5
sg19
I788750
sg20
g5
sg21
I12
sg22
I0
sg23
g5
sg24
I288589
sg25
I1130461
sg26
I0
sg27
g5
ssS'BLACHMAN JEREMY M'
p60
(dp61
g3
I2475
sg4
g5
sg6
I84208
sg7
I00
sg8
g5
sg9
S'jeremy.blachman@enron.com'
p62
sg11
I831809
sg12
I0
sg13
g5
sg14
I2326
sg15
g5
sg16
I14
sg17
I272
sg18
g5
sg19
I850000
sg20
I954354
sg21
I25
sg22
I2
sg23
I189041
sg24
I248546
sg25
I2014835
sg26
I0
sg27
I765313
ssS'SUNDE MARTIN'
p63
(dp64
g3
I2647
sg4
g5
sg6
g5
sg7
I00
sg8
g5
sg9
S'marty.sunde@enron.com'
p65
sg11
I476451
sg12
I0
sg13
g5
sg14
I2565
sg15
g5
sg16
I38
sg17
I111122
sg18
g5
sg19
I700000
sg20
I698920
sg21
I37
sg22
I13
sg23
I698920
sg24
I257486
sg25
I1545059
sg26
I0
sg27
g5
ssS'GIBBS DANA R'
p66
(dp67
g3
I169
sg4
I504610
sg6
g5
sg7
I00
sg8
g5
sg9
S'dana.gibbs@enron.com'
p68
sg11
I461912
sg12
I0
sg13
g5
sg14
I23
sg15
g5
sg16
I12
sg17
g5
sg18
g5
sg19
g5
sg20
I2218275
sg21
I0
sg22
I0
sg23
g5
sg24
g5
sg25
I966522
sg26
I0
sg27
I2218275
ssS'LOWRY CHARLES P'
p69
(dp70
g3
g5
sg4
g5
sg6
g5
sg7
I00
sg8
g5
sg9
g5
sg11
g5
sg12
F0.0
sg13
I-153686
sg14
g5
sg15
g5
sg16
g5
sg17
g5
sg18
g5
sg19
g5
sg20
I372205
sg21
g5
sg22
g5
sg23
I153686
sg24
g5
sg25
g5
sg26
F0.0
sg27
I372205
ssS'COLWELL WESLEY'
p71
(dp72
g3
I1758
sg4
I27610
sg6
I16514
sg7
I01
sg8
I-144062
sg9
S'wes.colwell@enron.com'
p73
sg11
g5
sg12
I0
sg13
g5
sg14
I1132
sg15
g5
sg16
I40
sg17
I101740
sg18
g5
sg19
I1200000
sg20
I698242
sg21
I240
sg22
I11
sg23
I698242
sg24
I288542
sg25
I1490344
sg26
I0
sg27
g5
ssS'MULLER MARK S'
p74
(dp75
g3
I136
sg4
I842924
sg6
g5
sg7
I00
sg8
I-719000
sg9
S's..muller@enron.com'
p76
sg11
I1725545
sg12
I0
sg13
g5
sg14
I114
sg15
g5
sg16
I16
sg17
I947
sg18
g5
sg19
I1100000
sg20
I1416848
sg21
I12
sg22
I0
sg23
I360528
sg24
I251654
sg25
I3202070
sg26
I0
sg27
I1056320
ssS'JACKSON CHARLENE R'
p77
(dp78
g3
I258
sg4
g5
sg6
I10181
sg7
I00
sg8
g5
sg9
S'charlene.jackson@enron.com'
p79
sg11
g5
sg12
I0
sg13
g5
sg14
I117
sg15
g5
sg16
I56
sg17
I2435
sg18
g5
sg19
I250000
sg20
I725735
sg21
I25
sg22
I19
sg23
I540672
sg24
I288558
sg25
I551174
sg26
I0
sg27
I185063
ssS'WESTFAHL RICHARD K'
p80
(dp81
g3
g5
sg4
g5
sg6
I51870
sg7
I00
sg8
I-10800
sg9
S'dick.westfahl@enron.com'
p82
sg11
I256191
sg12
F0.0
sg13
g5
sg14
g5
sg15
g5
sg16
g5
sg17
I401130
sg18
g5
sg19
g5
sg20
I384930
sg21
g5
sg22
g5
sg23
I384930
sg24
I63744
sg25
I762135
sg26
F0.0
sg27
g5
ssS'WALTERS GARETH W'
p83
(dp84
g3
g5
sg4
I53625
sg6
I33785
sg7
I00
sg8
g5
sg9
g5
sg11
g5
sg12
F0.0
sg13
g5
sg14
g5
sg15
g5
sg16
g5
sg17
g5
sg18
g5
sg19
g5
sg20
I1030329
sg21
g5
sg22
g5
sg23
g5
sg24
g5
sg25
I87410
sg26
F0.0
sg27
I1030329
ssS'WALLS JR ROBERT H'
p85
(dp86
g3
I671
sg4
g5
sg6
I50936
sg7
I00
sg8
g5
sg9
S'rob.walls@enron.com'
p87
sg11
I540751
sg12
I0
sg13
g5
sg14
I215
sg15
g5
sg16
I146
sg17
I2
sg18
g5
sg19
I850000
sg20
I5898997
sg21
I17
sg22
I0
sg23
I1552453
sg24
I357091
sg25
I1798780
sg26
I0
sg27
I4346544
ssS'KITCHEN LOUISE'
p88
(dp89
g3
I8305
sg4
g5
sg6
I5774
sg7
I00
sg8
g5
sg9
S'louise.kitchen@enron.com'
p90
sg11
g5
sg12
I0
sg13
g5
sg14
I3669
sg15
g5
sg16
I1728
sg17
I93925
sg18
g5
sg19
I3100000
sg20
I547143
sg21
I251
sg22
I194
sg23
I466101
sg24
I271442
sg25
I3471141
sg26
I0
sg27
I81042
ssS'CHAN RONNIE'
p91
(dp92
g3
g5
sg4
g5
sg6
g5
sg7
I00
sg8
I-98784
sg9
g5
sg11
g5
sg12
F0.0
sg13
I-32460
sg14
g5
sg15
g5
sg16
g5
sg17
g5
sg18
I98784
sg19
g5
sg20
g5
sg21
g5
sg22
g5
sg23
I32460
sg24
g5
sg25
g5
sg26
F0.0
sg27
g5
ssS'BELFER ROBERT'
p93
(dp94
S'to_messages'
p95
S'NaN'
p96
sS'deferral_payments'
p97
g96
sS'expenses'
p98
I3285
sS'poi'
p99
I00
sS'long_term_incentive'
p100
g96
sS'email_address'
p101
g96
sS'from_poi_to_this_person'
p102
g96
sS'deferred_income'
p103
I-102500
sg12
F0.0
sS'restricted_stock_deferred'
p104
I44093
sS'shared_receipt_with_poi'
p105
g96
sS'loan_advances'
p106
g96
sS'from_messages'
p107
g96
sS'other'
p108
g96
sS'director_fees'
p109
I102500
sS'bonus'
p110
g96
sS'total_stock_value'
p111
g96
sS'from_this_person_to_poi'
p112
g96
sS'restricted_stock'
p113
I-44093
sS'salary'
p114
g96
sS'total_payments'
p115
I3285
sg26
F0.0
sS'exercised_stock_options'
p116
g96
ssS'SHANKMAN JEFFREY A'
p117
(dp118
g3
I3221
sg4
g5
sg6
I178979
sg7
I00
sg8
g5
sg9
S'jeffrey.shankman@enron.com'
p119
sg11
I554422
sg12
I0
sg13
g5
sg14
I1730
sg15
g5
sg16
I2681
sg17
I1191
sg18
g5
sg19
I2000000
sg20
I2072035
sg21
I94
sg22
I83
sg23
I630137
sg24
I304110
sg25
I3038702
sg26
I0
sg27
I1441898
ssS'WODRASKA JOHN'
p120
(dp121
g3
g5
sg4
g5
sg6
g5
sg7
I00
sg8
g5
sg9
S'john.wodraska@enron.com'
p122
sg11
g5
sg12
F0.0
sg13
g5
sg14
g5
sg15
g5
sg16
g5
sg17
I189583
sg18
g5
sg19
g5
sg20
g5
sg21
g5
sg22
g5
sg23
g5
sg24
g5
sg25
I189583
sg26
F0.0
sg27
g5
ssS'BERGSIEKER RICHARD P'
p123
(dp124
g3
I383
sg4
g5
sg6
I59175
sg7
I00
sg8
I-485813
sg9
S'rick.bergsieker@enron.com'
p125
sg11
I180250
sg12
I0
sg13
g5
sg14
I233
sg15
g5
sg16
I59
sg17
I427316
sg18
g5
sg19
I250000
sg20
I659249
sg21
I4
sg22
I0
sg23
I659249
sg24
I187922
sg25
I618850
sg26
I0
sg27
g5
ssS'URQUHART JOHN A'
p126
(dp127
g3
g5
sg4
g5
sg6
I228656
sg7
I00
sg8
I-36666
sg9
g5
sg11
g5
sg12
F0.0
sg13
g5
sg14
g5
sg15
g5
sg16
g5
sg17
g5
sg18
I36666
sg19
g5
sg20
g5
sg21
g5
sg22
g5
sg23
g5
sg24
g5
sg25
I228656
sg26
F0.0
sg27
g5
ssS'BIBI PHILIPPE A'
p128
(dp129
g3
I1607
sg4
g5
sg6
I38559
sg7
I00
sg8
g5
sg9
S'philippe.bibi@enron.com'
p130
sg11
I369721
sg12
I0
sg13
g5
sg14
I1336
sg15
g5
sg16
I40
sg17
I425688
sg18
g5
sg19
I1000000
sg20
I1843816
sg21
I23
sg22
I8
sg23
I378082
sg24
I213625
sg25
I2047593
sg26
I0
sg27
I1465734
ssS'RIEKER PAULA H'
p131
(dp132
g3
I1328
sg4
I214678
sg6
I33271
sg7
I01
sg8
I-100000
sg9
S'paula.rieker@enron.com'
p133
sg11
g5
sg12
I0
sg13
g5
sg14
I1258
sg15
g5
sg16
I82
sg17
I1950
sg18
g5
sg19
I700000
sg20
I1918887
sg21
I35
sg22
I48
sg23
I283649
sg24
I249201
sg25
I1099100
sg26
I0
sg27
I1635238
ssS'WHALEY DAVID A'
p134
(dp135
g3
g5
sg4
g5
sg6
g5
sg7
I00
sg8
g5
sg9
g5
sg11
g5
sg12
F0.0
sg13
g5
sg14
g5
sg15
g5
sg16
g5
sg17
g5
sg18
g5
sg19
g5
sg20
I98718
sg21
g5
sg22
g5
sg23
g5
sg24
g5
sg25
g5
sg26
F0.0
sg27
I98718
ssS'BECK SALLY W'
p136
(dp137
g3
I7315
sg4
g5
sg6
I37172
sg7
I00
sg8
g5
sg9
S'sally.beck@enron.com'
p138
sg11
g5
sg12
I0
sg13
g5
sg14
I2639
sg15
g5
sg16
I4343
sg17
I566
sg18
g5
sg19
I700000
sg20
I126027
sg21
I144
sg22
I386
sg23
I126027
sg24
I231330
sg25
I969068
sg26
I0
sg27
g5
ssS'HAUG DAVID L'
p139
(dp140
g3
I573
sg4
g5
sg6
I475
sg7
I00
sg8
g5
sg9
S'david.haug@enron.com'
p141
sg11
g5
sg12
I0
sg13
g5
sg14
I471
sg15
g5
sg16
I19
sg17
g5
sg18
g5
sg19
g5
sg20
I2217299
sg21
I4
sg22
I7
sg23
I2217299
sg24
g5
sg25
I475
sg26
I0
sg27
g5
ssS'ECHOLS JOHN B'
p142
(dp143
g3
g5
sg4
g5
sg6
I21530
sg7
I00
sg8
g5
sg9
S'john.echols@enron.com'
p144
sg11
I2234774
sg12
F0.0
sg13
g5
sg14
g5
sg15
g5
sg16
g5
sg17
I53775
sg18
g5
sg19
I200000
sg20
I1008941
sg21
g5
sg22
g5
sg23
I407503
sg24
I182245
sg25
I2692324
sg26
F0.0
sg27
I601438
ssS'MENDELSOHN JOHN'
p145
(dp146
g3
g5
sg4
g5
sg6
I148
sg7
I00
sg8
I-103750
sg9
g5
sg11
g5
sg12
F0.0
sg13
g5
sg14
g5
sg15
g5
sg16
g5
sg17
g5
sg18
I103750
sg19
g5
sg20
g5
sg21
g5
sg22
g5
sg23
g5
sg24
g5
sg25
I148
sg26
F0.0
sg27
g5
ssS'HICKERSON GARY J'
p147
(dp148
g3
I1320
sg4
g5
sg6
I98849
sg7
I00
sg8
g5
sg9
S'gary.hickerson@enron.com'
p149
sg11
I69223
sg12
I0
sg13
g5
sg14
I900
sg15
g5
sg16
I27
sg17
I1936
sg18
g5
sg19
I1700000
sg20
I441096
sg21
I40
sg22
I1
sg23
I441096
sg24
I211788
sg25
I2081796
sg26
I0
sg27
g5
ssS'CLINE KENNETH W'
p150
(dp151
g3
g5
sg4
g5
sg6
g5
sg7
I00
sg8
g5
sg9
g5
sg11
g5
sg12
F0.0
sg13
I-472568
sg14
g5
sg15
g5
sg16
g5
sg17
g5
sg18
g5
sg19
g5
sg20
I189518
sg21
g5
sg22
g5
sg23
I662086
sg24
g5
sg25
g5
sg26
F0.0
sg27
g5
ssS'LEWIS RICHARD'
p152
(dp153
g3
I952
sg4
g5
sg6
g5
sg7
I00
sg8
g5
sg9
S'richard.lewis@enron.com'
p154
sg11
g5
sg12
I0
sg13
g5
sg14
I739
sg15
g5
sg16
I26
sg17
g5
sg18
g5
sg19
g5
sg20
I850477
sg21
I10
sg22
I0
sg23
g5
sg24
g5
sg25
g5
sg26
I0
sg27
I850477
ssS'HAYES ROBERT E'
p155
(dp156
g3
I504
sg4
I7961
sg6
g5
sg7
I00
sg8
g5
sg9
S'robert.hayes@enron.com'
p157
sg11
g5
sg12
I0
sg13
g5
sg14
I50
sg15
g5
sg16
I12
sg17
g5
sg18
g5
sg19
g5
sg20
I151418
sg21
I16
sg22
I0
sg23
I151418
sg24
g5
sg25
I7961
sg26
I0
sg27
g5
ssS'MCCARTY DANNY J'
p158
(dp159
g3
I1433
sg4
g5
sg6
g5
sg7
I00
sg8
g5
sg9
S'danny.mccarty@enron.com'
p160
sg11
g5
sg12
I0
sg13
g5
sg14
I508
sg15
g5
sg16
I215
sg17
g5
sg18
g5
sg19
g5
sg20
I758931
sg21
I25
sg22
I2
sg23
I94556
sg24
g5
sg25
g5
sg26
I0
sg27
I664375
ssS'KOPPER MICHAEL J'
p161
(dp162
g3
g5
sg4
g5
sg6
I118134
sg7
I01
sg8
g5
sg9
S'michael.kopper@enron.com'
p163
sg11
I602671
sg12
F0.0
sg13
g5
sg14
g5
sg15
g5
sg16
g5
sg17
I907502
sg18
g5
sg19
I800000
sg20
I985032
sg21
g5
sg22
g5
sg23
I985032
sg24
I224305
sg25
I2652612
sg26
F0.0
sg27
g5
ssS'LEFF DANIEL P'
p164
(dp165
g3
I2822
sg4
g5
sg6
g5
sg7
I00
sg8
g5
sg9
S'dan.leff@enron.com'
p166
sg11
I1387399
sg12
I0
sg13
g5
sg14
I2672
sg15
g5
sg16
I63
sg17
I3083
sg18
g5
sg19
I1000000
sg20
I360528
sg21
I67
sg22
I14
sg23
I360528
sg24
I273746
sg25
I2664228
sg26
I0
sg27
g5
ssS'LAVORATO JOHN J'
p167
(dp168
g3
I7259
sg4
g5
sg6
I49537
sg7
I00
sg8
g5
sg9
S'john.lavorato@enron.com'
p169
sg11
I2035380
sg12
I0
sg13
g5
sg14
I3962
sg15
g5
sg16
I2585
sg17
I1552
sg18
g5
sg19
I8000000
sg20
I5167144
sg21
I528
sg22
I411
sg23
I1008149
sg24
I339288
sg25
I10425757
sg26
I0
sg27
I4158995
ssS'BERBERIAN DAVID'
p170
(dp171
g3
g5
sg4
g5
sg6
I11892
sg7
I00
sg8
g5
sg9
S'david.berberian@enron.com'
p172
sg11
g5
sg12
F0.0
sg13
g5
sg14
g5
sg15
g5
sg16
g5
sg17
g5
sg18
g5
sg19
g5
sg20
I2493616
sg21
g5
sg22
g5
sg23
I869220
sg24
I216582
sg25
I228474
sg26
F0.0
sg27
I1624396
ssS'DETMERING TIMOTHY J'
p173
(dp174
g3
g5
sg4
I875307
sg6
I52255
sg7
I00
sg8
I-775241
sg9
S'timothy.detmering@enron.com'
p175
sg11
I415657
sg12
F0.0
sg13
I-315068
sg14
g5
sg15
g5
sg16
g5
sg17
I1105
sg18
g5
sg19
I425000
sg20
I2027865
sg21
g5
sg22
g5
sg23
I315068
sg24
I210500
sg25
I1204583
sg26
F0.0
sg27
I2027865
ssS'WAKEHAM JOHN'
p176
(dp177
g3
g5
sg4
g5
sg6
I103773
sg7
I00
sg8
g5
sg9
g5
sg11
g5
sg12
F0.0
sg13
g5
sg14
g5
sg15
g5
sg16
g5
sg17
g5
sg18
I109298
sg19
g5
sg20
g5
sg21
g5
sg22
g5
sg23
g5
sg24
g5
sg25
I213071
sg26
F0.0
sg27
g5
ssS'POWERS WILLIAM'
p178
(dp179
g3
I653
sg4
g5
sg6
g5
sg7
I00
sg8
I-17500
sg9
S'ken.powers@enron.com'
p180
sg11
g5
sg12
I0
sg13
g5
sg14
I12
sg15
g5
sg16
I26
sg17
g5
sg18
I17500
sg19
g5
sg20
g5
sg21
I0
sg22
I0
sg23
g5
sg24
g5
sg25
g5
sg26
I0
sg27
g5
ssS'GOLD JOSEPH'
p181
(dp182
g3
g5
sg4
g5
sg6
g5
sg7
I00
sg8
g5
sg9
S'joe.gold@enron.com'
p183
sg11
I304805
sg12
F0.0
sg13
g5
sg14
g5
sg15
g5
sg16
g5
sg17
I819288
sg18
g5
sg19
I750000
sg20
I877611
sg21
g5
sg22
g5
sg23
I441096
sg24
I272880
sg25
I2146973
sg26
F0.0
sg27
I436515
ssS'BANNANTINE JAMES M'
p184
(dp185
g3
I566
sg4
g5
sg6
I56301
sg7
I00
sg8
I-5104
sg9
S'james.bannantine@enron.com'
p186
sg11
g5
sg12
I0
sg13
I-560222
sg14
I465
sg15
g5
sg16
I29
sg17
I864523
sg18
g5
sg19
g5
sg20
I5243487
sg21
I39
sg22
I0
sg23
I1757552
sg24
I477
sg25
I916197
sg26
I0
sg27
I4046157
ssS'DUNCAN JOHN H'
p187
(dp188
g3
g5
sg4
g5
sg6
g5
sg7
I00
sg8
I-25000
sg9
g5
sg11
g5
sg12
F0.0
sg13
g5
sg14
g5
sg15
g5
sg16
g5
sg17
g5
sg18
I102492
sg19
g5
sg20
I371750
sg21
g5
sg22
g5
sg23
g5
sg24
g5
sg25
I77492
sg26
F0.0
sg27
I371750
ssS'SHAPIRO RICHARD S'
p189
(dp190
g3
I15149
sg4
g5
sg6
I137767
sg7
I00
sg8
g5
sg9
S'richard.shapiro@enron.com'
p191
sg11
g5
sg12
I0
sg13
g5
sg14
I4527
sg15
g5
sg16
I1215
sg17
I705
sg18
g5
sg19
I650000
sg20
I987001
sg21
I74
sg22
I65
sg23
I379164
sg24
I269076
sg25
I1057548
sg26
I0
sg27
I607837
ssS'SHERRIFF JOHN R'
p192
(dp193
g3
I3187
sg4
g5
sg6
g5
sg7
I00
sg8
g5
sg9
S'john.sherriff@enron.com'
p194
sg11
I554422
sg12
I0
sg13
g5
sg14
I2103
sg15
g5
sg16
I92
sg17
I1852186
sg18
g5
sg19
I1500000
sg20
I3128982
sg21
I28
sg22
I23
sg23
I1293424
sg24
I428780
sg25
I4335388
sg26
I0
sg27
I1835558
ssS'SHELBY REX'
p195
(dp196
g3
I225
sg4
g5
sg6
I22884
sg7
I01
sg8
I-4167
sg9
S'rex.shelby@enron.com'
p197
sg11
g5
sg12
I0
sg13
g5
sg14
I91
sg15
g5
sg16
I39
sg17
I1573324
sg18
g5
sg19
I200000
sg20
I2493616
sg21
I13
sg22
I14
sg23
I869220
sg24
I211844
sg25
I2003885
sg26
I0
sg27
I1624396
ssS'LEMAISTRE CHARLES'
p198
(dp199
g3
g5
sg4
g5
sg6
g5
sg7
I00
sg8
I-25000
sg9
g5
sg11
g5
sg12
F0.0
sg13
g5
sg14
g5
sg15
g5
sg16
g5
sg17
g5
sg18
I112492
sg19
g5
sg20
I412878
sg21
g5
sg22
g5
sg23
g5
sg24
g5
sg25
I87492
sg26
F0.0
sg27
I412878
ssS'DEFFNER JOSEPH M'
p200
(dp201
g3
I714
sg4
g5
sg6
I41626
sg7
I00
sg8
g5
sg9
S'joseph.deffner@enron.com'
p202
sg11
I335349
sg12
I0
sg13
g5
sg14
I552
sg15
g5
sg16
I74
sg17
I25553
sg18
g5
sg19
I600000
sg20
I159211
sg21
I115
sg22
I4
sg23
I141833
sg24
I206121
sg25
I1208649
sg26
I0
sg27
I17378
ssS'KISHKILL JOSEPH G'
p203
(dp204
g3
g5
sg4
g5
sg6
I116335
sg7
I00
sg8
I-51042
sg9
S'joe.kishkill@enron.com'
p205
sg11
g5
sg12
F0.0
sg13
g5
sg14
g5
sg15
g5
sg16
g5
sg17
I465357
sg18
g5
sg19
g5
sg20
I1034346
sg21
g5
sg22
g5
sg23
I1034346
sg24
I174246
sg25
I704896
sg26
F0.0
sg27
g5
ssS'WHALLEY LAWRENCE G'
p206
(dp207
g3
I6019
sg4
g5
sg6
I57838
sg7
I00
sg8
g5
sg9
S'greg.whalley@enron.com'
p208
sg11
I808346
sg12
I0
sg13
g5
sg14
I3920
sg15
g5
sg16
I556
sg17
I301026
sg18
g5
sg19
I3000000
sg20
I6079137
sg21
I186
sg22
I24
sg23
I2796177
sg24
I510364
sg25
I4677574
sg26
I0
sg27
I3282960
ssS'MCCONNELL MICHAEL S'
p209
(dp210
g3
I3329
sg4
g5
sg6
I81364
sg7
I00
sg8
g5
sg9
S'mike.mcconnell@enron.com'
p211
sg11
I554422
sg12
I0
sg13
g5
sg14
I2189
sg15
g5
sg16
I2742
sg17
I540
sg18
g5
sg19
I1100000
sg20
I3101279
sg21
I92
sg22
I194
sg23
I1478269
sg24
I365038
sg25
I2101364
sg26
I0
sg27
I1623010
ssS'PIRO JIM'
p212
(dp213
g3
I58
sg4
g5
sg6
g5
sg7
I00
sg8
g5
sg9
S'jim.piro@enron.com'
p214
sg11
g5
sg12
I0
sg13
g5
sg14
I3
sg15
g5
sg16
I16
sg17
g5
sg18
g5
sg19
g5
sg20
I47304
sg21
I0
sg22
I1
sg23
I47304
sg24
g5
sg25
g5
sg26
I0
sg27
g5
ssS'DELAINEY DAVID W'
p215
(dp216
g3
I3093
sg4
g5
sg6
I86174
sg7
I01
sg8
g5
sg9
S'david.delainey@enron.com'
p217
sg11
I1294981
sg12
I0
sg13
g5
sg14
I2097
sg15
g5
sg16
I3069
sg17
I1661
sg18
g5
sg19
I3000000
sg20
I3614261
sg21
I66
sg22
I609
sg23
I1323148
sg24
I365163
sg25
I4747979
sg26
I0
sg27
I2291113
ssS'SULLIVAN-SHAKLOVITZ COLLEEN'
p218
(dp219
g3
g5
sg4
I181993
sg6
g5
sg7
I00
sg8
g5
sg9
g5
sg11
I554422
sg12
F0.0
sg13
g5
sg14
g5
sg15
g5
sg16
g5
sg17
I162
sg18
g5
sg19
I100000
sg20
I1362375
sg21
g5
sg22
g5
sg23
g5
sg24
I162779
sg25
I999356
sg26
F0.0
sg27
I1362375
ssS'WROBEL BRUCE'
p220
(dp221
g3
g5
sg4
g5
sg6
g5
sg7
I00
sg8
g5
sg9
g5
sg11
g5
sg12
F0.0
sg13
g5
sg14
g5
sg15
g5
sg16
g5
sg17
g5
sg18
g5
sg19
g5
sg20
I139130
sg21
g5
sg22
g5
sg23
g5
sg24
g5
sg25
g5
sg26
F0.0
sg27
I139130
ssS'LINDHOLM TOD A'
p222
(dp223
g3
g5
sg4
I204075
sg6
I57727
sg7
I00
sg8
g5
sg9
S'tod.lindholm@enron.com'
p224
sg11
I175000
sg12
F0.0
sg13
g5
sg14
g5
sg15
g5
sg16
g5
sg17
I2630
sg18
g5
sg19
I200000
sg20
I3064208
sg21
g5
sg22
g5
sg23
I514847
sg24
I236457
sg25
I875889
sg26
F0.0
sg27
I2549361
ssS'MEYER JEROME J'
p225
(dp226
g3
g5
sg4
g5
sg6
I2151
sg7
I00
sg8
I-38346
sg9
g5
sg11
g5
sg12
F0.0
sg13
g5
sg14
g5
sg15
g5
sg16
g5
sg17
g5
sg18
I38346
sg19
g5
sg20
g5
sg21
g5
sg22
g5
sg23
g5
sg24
g5
sg25
I2151
sg26
F0.0
sg27
g5
ssS'LAY KENNETH L'
p227
(dp228
g3
I4273
sg4
I202911
sg6
I99832
sg7
I01
sg8
I-300000
sg9
S'kenneth.lay@enron.com'
p229
sg11
I3600000
sg12
I0
sg13
g5
sg14
I2411
sg15
I81525000
sg16
I36
sg17
I10359729
sg18
g5
sg19
I7000000
sg20
I49110078
sg21
I123
sg22
I16
sg23
I14761694
sg24
I1072321
sg25
I103559793
sg26
I0
sg27
I34348384
ssS'BUTTS ROBERT H'
p230
(dp231
g3
g5
sg4
g5
sg6
I9410
sg7
I00
sg8
I-75000
sg9
S'bob.butts@enron.com'
p232
sg11
I175000
sg12
F0.0
sg13
g5
sg14
g5
sg15
g5
sg16
g5
sg17
I150656
sg18
g5
sg19
I750000
sg20
I417619
sg21
g5
sg22
g5
sg23
I417619
sg24
I261516
sg25
I1271582
sg26
F0.0
sg27
g5
ssS'OLSON CINDY K'
p233
(dp234
g3
I1184
sg4
I77716
sg6
I63791
sg7
I00
sg8
g5
sg9
S'cindy.olson@enron.com'
p235
sg11
I100000
sg12
I0
sg13
g5
sg14
I856
sg15
g5
sg16
I52
sg17
I972
sg18
g5
sg19
I750000
sg20
I2606763
sg21
I20
sg22
I15
sg23
I969729
sg24
I329078
sg25
I1321557
sg26
I0
sg27
I1637034
ssS'MCDONALD REBECCA'
p236
(dp237
g3
I894
sg4
g5
sg6
g5
sg7
I00
sg8
g5
sg9
S'rebecca.mcdonald@enron.com'
p238
sg11
g5
sg12
I0
sg13
g5
sg14
I720
sg15
g5
sg16
I13
sg17
g5
sg18
g5
sg19
g5
sg20
I1691366
sg21
I54
sg22
I1
sg23
I934065
sg24
g5
sg25
g5
sg26
I0
sg27
I757301
ssS'CUMBERLAND MICHAEL S'
p239
(dp240
g3
g5
sg4
g5
sg6
I22344
sg7
I00
sg8
g5
sg9
g5
sg11
I275000
sg12
F0.0
sg13
g5
sg14
g5
sg15
g5
sg16
g5
sg17
I713
sg18
g5
sg19
I325000
sg20
I207940
sg21
g5
sg22
g5
sg23
I207940
sg24
I184899
sg25
I807956
sg26
F0.0
sg27
g5
ssS'GAHN ROBERT S'
p241
(dp242
g3
g5
sg4
I73122
sg6
I50080
sg7
I00
sg8
I-1042
sg9
g5
sg11
g5
sg12
F0.0
sg13
g5
sg14
g5
sg15
g5
sg16
g5
sg17
I76547
sg18
g5
sg19
I509870
sg20
I318607
sg21
g5
sg22
g5
sg23
I235370
sg24
I192008
sg25
I900585
sg26
F0.0
sg27
I83237
ssS'MCCLELLAN GEORGE'
p243
(dp244
g3
I1744
sg4
g5
sg6
I228763
sg7
I00
sg8
I-125000
sg9
S'george.mcclellan@enron.com'
p245
sg11
g5
sg12
I0
sg13
g5
sg14
I1469
sg15
g5
sg16
I49
sg17
I51587
sg18
g5
sg19
I900000
sg20
I947861
sg21
I52
sg22
I0
sg23
I441096
sg24
I263413
sg25
I1318763
sg26
I0
sg27
I506765
ssS'HERMANN ROBERT J'
p246
(dp247
g3
g5
sg4
g5
sg6
I48357
sg7
I00
sg8
I-280000
sg9
S'robert.hermann@enron.com'
p248
sg11
I150000
sg12
F0.0
sg13
g5
sg14
g5
sg15
g5
sg16
g5
sg17
I416441
sg18
g5
sg19
I700000
sg20
I668132
sg21
g5
sg22
g5
sg23
I480632
sg24
I262663
sg25
I1297461
sg26
F0.0
sg27
I187500
ssS'SCRIMSHAW MATTHEW'
p249
(dp250
g3
g5
sg4
g5
sg6
g5
sg7
I00
sg8
g5
sg9
S'matthew.scrimshaw@enron.com'
p251
sg11
g5
sg12
F0.0
sg13
g5
sg14
g5
sg15
g5
sg16
g5
sg17
g5
sg18
g5
sg19
g5
sg20
I759557
sg21
g5
sg22
g5
sg23
g5
sg24
g5
sg25
g5
sg26
F0.0
sg27
I759557
ssS'GATHMANN WILLIAM D'
p252
(dp253
g3
g5
sg4
g5
sg6
g5
sg7
I00
sg8
g5
sg9
g5
sg11
g5
sg12
F0.0
sg13
I-72419
sg14
g5
sg15
g5
sg16
g5
sg17
g5
sg18
g5
sg19
g5
sg20
I1945360
sg21
g5
sg22
g5
sg23
I264013
sg24
g5
sg25
g5
sg26
F0.0
sg27
I1753766
ssS'HAEDICKE MARK E'
p254
(dp255
g3
I4009
sg4
I2157527
sg6
I76169
sg7
I00
sg8
I-934484
sg9
S'mark.haedicke@enron.com'
p256
sg11
I983346
sg12
I0
sg13
I-329825
sg14
I1847
sg15
g5
sg16
I1941
sg17
I52382
sg18
g5
sg19
I1150000
sg20
I803094
sg21
I180
sg22
I61
sg23
I524169
sg24
I374125
sg25
I3859065
sg26
I0
sg27
I608750
ssS'BOWEN JR RAYMOND M'
p257
(dp258
g3
I1858
sg4
g5
sg6
I65907
sg7
I01
sg8
I-833
sg9
S'raymond.bowen@enron.com'
p259
sg11
I974293
sg12
I0
sg13
g5
sg14
I1593
sg15
g5
sg16
I27
sg17
I1621
sg18
g5
sg19
I1350000
sg20
I252055
sg21
I140
sg22
I15
sg23
I252055
sg24
I278601
sg25
I2669589
sg26
I0
sg27
g5
ssS'GILLIS JOHN'
p260
(dp261
g3
g5
sg4
g5
sg6
g5
sg7
I00
sg8
g5
sg9
g5
sg11
g5
sg12
F0.0
sg13
g5
sg14
g5
sg15
g5
sg16
g5
sg17
g5
sg18
g5
sg19
g5
sg20
I85641
sg21
g5
sg22
g5
sg23
I75838
sg24
g5
sg25
g5
sg26
F0.0
sg27
I9803
ssS'FITZGERALD JAY L'
p262
(dp263
g3
I936
sg4
g5
sg6
I23870
sg7
I00
sg8
g5
sg9
S'jay.fitzgerald@enron.com'
p264
sg11
I556416
sg12
I0
sg13
g5
sg14
I723
sg15
g5
sg16
I16
sg17
I285414
sg18
g5
sg19
I350000
sg20
I1621236
sg21
I1
sg22
I8
sg23
I956775
sg24
I199157
sg25
I1414857
sg26
I0
sg27
I664461
ssS'MORAN MICHAEL P'
p265
(dp266
g3
I672
sg4
g5
sg6
g5
sg7
I00
sg8
g5
sg9
S'michael.moran@enron.com'
p267
sg11
g5
sg12
I0
sg13
g5
sg14
I127
sg15
g5
sg16
I19
sg17
g5
sg18
g5
sg19
g5
sg20
I221141
sg21
I0
sg22
I0
sg23
I161602
sg24
g5
sg25
g5
sg26
I0
sg27
I59539
ssS'REDMOND BRIAN L'
p268
(dp269
g3
I1671
sg4
g5
sg6
I14689
sg7
I00
sg8
g5
sg9
S'brian.redmond@enron.com'
p270
sg11
g5
sg12
I0
sg13
g5
sg14
I1063
sg15
g5
sg16
I221
sg17
g5
sg18
g5
sg19
g5
sg20
I7890324
sg21
I204
sg22
I49
sg23
I381285
sg24
I96840
sg25
I111529
sg26
I0
sg27
I7509039
ssS'BAZELIDES PHILIP J'
p271
(dp272
g3
g5
sg4
I684694
sg6
g5
sg7
I00
sg8
g5
sg9
g5
sg11
I93750
sg12
F0.0
sg13
g5
sg14
g5
sg15
g5
sg16
g5
sg17
I874
sg18
g5
sg19
g5
sg20
I1599641
sg21
g5
sg22
g5
sg23
g5
sg24
I80818
sg25
I860136
sg26
F0.0
sg27
I1599641
ssS'BELDEN TIMOTHY N'
p273
(dp274
g3
I7991
sg4
I2144013
sg6
I17355
sg7
I01
sg8
I-2334434
sg9
S'tim.belden@enron.com'
p275
sg11
g5
sg12
I0
sg13
g5
sg14
I5521
sg15
g5
sg16
I484
sg17
I210698
sg18
g5
sg19
I5249999
sg20
I1110705
sg21
I228
sg22
I108
sg23
I157569
sg24
I213999
sg25
I5501630
sg26
I0
sg27
I953136
ssS'DURAN WILLIAM D'
p276
(dp277
g3
I904
sg4
g5
sg6
I25785
sg7
I00
sg8
g5
sg9
S'w.duran@enron.com'
p278
sg11
I1105218
sg12
I0
sg13
g5
sg14
I599
sg15
g5
sg16
I12
sg17
I1568
sg18
g5
sg19
I750000
sg20
I1640910
sg21
I106
sg22
I3
sg23
I189041
sg24
I210692
sg25
I2093263
sg26
I0
sg27
I1451869
ssS'THORN TERENCE H'
p279
(dp280
g3
I266
sg4
I16586
sg6
I46145
sg7
I00
sg8
g5
sg9
S'terence.thorn@enron.com'
p281
sg11
I200000
sg12
I0
sg13
g5
sg14
I73
sg15
g5
sg16
I41
sg17
I426629
sg18
g5
sg19
g5
sg20
I4817796
sg21
I0
sg22
I0
sg23
I365320
sg24
I222093
sg25
I911453
sg26
I0
sg27
I4452476
ssS'FASTOW ANDREW S'
p282
(dp283
g3
g5
sg4
g5
sg6
I55921
sg7
I01
sg8
I-1386055
sg9
S'andrew.fastow@enron.com'
p284
sg11
I1736055
sg12
F0.0
sg13
g5
sg14
g5
sg15
g5
sg16
g5
sg17
I277464
sg18
g5
sg19
I1300000
sg20
I1794412
sg21
g5
sg22
g5
sg23
I1794412
sg24
I440698
sg25
I2424083
sg26
F0.0
sg27
g5
ssS'FOY JOE'
p285
(dp286
g3
I57
sg4
I181755
sg6
g5
sg7
I00
sg8
g5
sg9
S'tracy.foy@enron.com'
p287
sg11
g5
sg12
I0
sg13
g5
sg14
I2
sg15
g5
sg16
I13
sg17
g5
sg18
g5
sg19
g5
sg20
I343434
sg21
I0
sg22
I0
sg23
g5
sg24
g5
sg25
I181755
sg26
I0
sg27
I343434
ssS'CALGER CHRISTOPHER F'
p288
(dp289
g3
I2598
sg4
g5
sg6
I35818
sg7
I01
sg8
I-262500
sg9
S'christopher.calger@enron.com'
p290
sg11
I375304
sg12
I0
sg13
g5
sg14
I2188
sg15
g5
sg16
I144
sg17
I486
sg18
g5
sg19
I1250000
sg20
I126027
sg21
I199
sg22
I25
sg23
I126027
sg24
I240189
sg25
I1639297
sg26
I0
sg27
g5
ssS'RICE KENNETH D'
p291
(dp292
g3
I905
sg4
g5
sg6
I46950
sg7
I01
sg8
I-3504386
sg9
S'ken.rice@enron.com'
p293
sg11
I1617011
sg12
I0
sg13
g5
sg14
I864
sg15
g5
sg16
I18
sg17
I174839
sg18
g5
sg19
I1750000
sg20
I22542539
sg21
I42
sg22
I4
sg23
I2748364
sg24
I420636
sg25
I505050
sg26
I0
sg27
I19794175
ssS'KAMINSKI WINCENTY J'
p294
(dp295
g3
I4607
sg4
g5
sg6
I83585
sg7
I00
sg8
g5
sg9
S'vince.kaminski@enron.com'
p296
sg11
I323466
sg12
I0
sg13
g5
sg14
I583
sg15
g5
sg16
I14368
sg17
I4669
sg18
g5
sg19
I400000
sg20
I976037
sg21
I41
sg22
I171
sg23
I126027
sg24
I275101
sg25
I1086821
sg26
I0
sg27
I850010
ssS'COX DAVID'
p297
(dp298
g3
I102
sg4
g5
sg6
I27861
sg7
I00
sg8
I-41250
sg9
S'chip.cox@enron.com'
p299
sg11
g5
sg12
I0
sg13
g5
sg14
I71
sg15
g5
sg16
I33
sg17
I494
sg18
g5
sg19
I800000
sg20
I495633
sg21
I0
sg22
I4
sg23
I378082
sg24
I314288
sg25
I1101393
sg26
I0
sg27
I117551
ssS'OVERDYKE JR JERE C'
p300
(dp301
g3
g5
sg4
g5
sg6
I18834
sg7
I00
sg8
g5
sg9
S'jere.overdyke@enron.com'
p302
sg11
I135836
sg12
F0.0
sg13
g5
sg14
g5
sg15
g5
sg16
g5
sg17
I176
sg18
g5
sg19
g5
sg20
I7307594
sg21
g5
sg22
g5
sg23
I2041016
sg24
I94941
sg25
I249787
sg26
F0.0
sg27
I5266578
ssS'PEREIRA PAULO V. FERRAZ'
p303
(dp304
g3
g5
sg4
g5
sg6
I27942
sg7
I00
sg8
I-101250
sg9
g5
sg11
g5
sg12
F0.0
sg13
g5
sg14
g5
sg15
g5
sg16
g5
sg17
g5
sg18
I101250
sg19
g5
sg20
g5
sg21
g5
sg22
g5
sg23
g5
sg24
g5
sg25
I27942
sg26
F0.0
sg27
g5
ssS'STABLER FRANK'
p305
(dp306
g3
g5
sg4
g5
sg6
I16514
sg7
I00
sg8
g5
sg9
S'frank.stabler@enron.com'
p307
sg11
g5
sg12
F0.0
sg13
g5
sg14
g5
sg15
g5
sg16
g5
sg17
I356071
sg18
g5
sg19
I500000
sg20
I511734
sg21
g5
sg22
g5
sg23
I511734
sg24
I239502
sg25
I1112087
sg26
F0.0
sg27
g5
ssS'SKILLING JEFFREY K'
p308
(dp309
g3
I3627
sg4
g5
sg6
I29336
sg7
I01
sg8
g5
sg9
S'jeff.skilling@enron.com'
p310
sg11
I1920000
sg12
I0
sg13
g5
sg14
I2042
sg15
g5
sg16
I108
sg17
I22122
sg18
g5
sg19
I5600000
sg20
I26093672
sg21
I88
sg22
I30
sg23
I6843672
sg24
I1111258
sg25
I8682716
sg26
I0
sg27
I19250000
ssS'BLAKE JR. NORMAN P'
p311
(dp312
g3
g5
sg4
g5
sg6
I1279
sg7
I00
sg8
I-113784
sg9
g5
sg11
g5
sg12
F0.0
sg13
g5
sg14
g5
sg15
g5
sg16
g5
sg17
g5
sg18
I113784
sg19
g5
sg20
g5
sg21
g5
sg22
g5
sg23
g5
sg24
g5
sg25
I1279
sg26
F0.0
sg27
g5
ssS'SHERRICK JEFFREY B'
p313
(dp314
g3
I613
sg4
g5
sg6
g5
sg7
I00
sg8
g5
sg9
S'jeffrey.sherrick@enron.com'
p315
sg11
g5
sg12
I0
sg13
g5
sg14
I583
sg15
g5
sg16
I25
sg17
g5
sg18
g5
sg19
g5
sg20
I1832468
sg21
I39
sg22
I18
sg23
I405999
sg24
g5
sg25
g5
sg26
I0
sg27
I1426469
ssS'PRENTICE JAMES'
p316
(dp317
g3
g5
sg4
I564348
sg6
g5
sg7
I00
sg8
g5
sg9
S'james.prentice@enron.com'
p318
sg11
g5
sg12
F0.0
sg13
g5
sg14
g5
sg15
g5
sg16
g5
sg17
g5
sg18
g5
sg19
g5
sg20
I1095040
sg21
g5
sg22
g5
sg23
I208809
sg24
g5
sg25
I564348
sg26
F0.0
sg27
I886231
ssS'GRAY RODNEY'
p319
(dp320
g3
g5
sg4
I93585
sg6
g5
sg7
I00
sg8
g5
sg9
g5
sg11
I365625
sg12
F0.0
sg13
g5
sg14
g5
sg15
g5
sg16
g5
sg17
I680833
sg18
g5
sg19
g5
sg20
g5
sg21
g5
sg22
g5
sg23
g5
sg24
I6615
sg25
I1146658
sg26
F0.0
sg27
g5
ssS'PICKERING MARK R'
p321
(dp322
g3
I898
sg4
g5
sg6
I31653
sg7
I00
sg8
g5
sg9
S'mark.pickering@enron.com'
p323
sg11
g5
sg12
I0
sg13
g5
sg14
I728
sg15
I400000
sg16
I67
sg17
g5
sg18
g5
sg19
I300000
sg20
I28798
sg21
I7
sg22
I0
sg23
g5
sg24
I655037
sg25
I1386690
sg26
I0
sg27
I28798
ssS'NOLES JAMES L'
p324
(dp325
g3
g5
sg4
I774401
sg6
g5
sg7
I00
sg8
g5
sg9
g5
sg11
g5
sg12
F0.0
sg13
I-94556
sg14
g5
sg15
g5
sg16
g5
sg17
g5
sg18
g5
sg19
g5
sg20
I368705
sg21
g5
sg22
g5
sg23
I463261
sg24
g5
sg25
I774401
sg26
F0.0
sg27
g5
ssS'KEAN STEVEN J'
p326
(dp327
g3
I12754
sg4
g5
sg6
I41953
sg7
I00
sg8
g5
sg9
S'steven.kean@enron.com'
p328
sg11
I300000
sg12
I0
sg13
g5
sg14
I3639
sg15
g5
sg16
I6759
sg17
I1231
sg18
g5
sg19
I1000000
sg20
I6153642
sg21
I140
sg22
I387
sg23
I4131594
sg24
I404338
sg25
I1747522
sg26
I0
sg27
I2022048
ssS'FOWLER PEGGY'
p329
(dp330
g3
I517
sg4
g5
sg6
g5
sg7
I00
sg8
g5
sg9
S'kulvinder.fowler@enron.com'
p331
sg11
g5
sg12
I0
sg13
g5
sg14
I10
sg15
g5
sg16
I36
sg17
g5
sg18
g5
sg19
g5
sg20
I1884748
sg21
I0
sg22
I0
sg23
I560170
sg24
g5
sg25
g5
sg26
I0
sg27
I1324578
ssS'WASAFF GEORGE'
p332
(dp333
g3
I400
sg4
I831299
sg6
g5
sg7
I00
sg8
I-583325
sg9
S'george.wasaff@enron.com'
p334
sg11
I200000
sg12
I0
sg13
g5
sg14
I337
sg15
g5
sg16
I30
sg17
I1425
sg18
g5
sg19
I325000
sg20
I2056427
sg21
I22
sg22
I7
sg23
I388167
sg24
I259996
sg25
I1034395
sg26
I0
sg27
I1668260
ssS'WHITE JR THOMAS E'
p335
(dp336
g3
g5
sg4
g5
sg6
I81353
sg7
I00
sg8
g5
sg9
S'thomas.white@enron.com'
p337
sg11
g5
sg12
F0.0
sg13
g5
sg14
g5
sg15
g5
sg16
g5
sg17
I1085463
sg18
g5
sg19
I450000
sg20
I15144123
sg21
g5
sg22
g5
sg23
I13847074
sg24
I317543
sg25
I1934359
sg26
F0.0
sg27
I1297049
ssS'CHRISTODOULOU DIOMEDES'
p338
(dp339
g3
g5
sg4
g5
sg6
g5
sg7
I00
sg8
g5
sg9
S'diomedes.christodoulou@enron.com'
p340
sg11
g5
sg12
F0.0
sg13
g5
sg14
g5
sg15
g5
sg16
g5
sg17
g5
sg18
g5
sg19
g5
sg20
I6077885
sg21
g5
sg22
g5
sg23
I950730
sg24
g5
sg25
g5
sg26
F0.0
sg27
I5127155
ssS'ALLEN PHILLIP K'
p341
(dp342
g3
I2902
sg4
I2869717
sg6
I13868
sg7
I00
sg8
I-3081055
sg9
S'phillip.allen@enron.com'
p343
sg11
I304805
sg12
I0
sg13
I-126027
sg14
I1407
sg15
g5
sg16
I2195
sg17
I152
sg18
g5
sg19
I4175000
sg20
I1729541
sg21
I47
sg22
I65
sg23
I126027
sg24
I201955
sg25
I4484442
sg26
I0
sg27
I1729541
ssS'SHARP VICTORIA T'
p344
(dp345
g3
I3136
sg4
I187469
sg6
I116337
sg7
I00
sg8
g5
sg9
S'vicki.sharp@enron.com'
p346
sg11
I422158
sg12
I0
sg13
g5
sg14
I2477
sg15
g5
sg16
I136
sg17
I2401
sg18
g5
sg19
I600000
sg20
I494136
sg21
I24
sg22
I6
sg23
I213063
sg24
I248146
sg25
I1576511
sg26
I0
sg27
I281073
ssS'JAEDICKE ROBERT'
p347
(dp348
g3
g5
sg4
g5
sg6
g5
sg7
I00
sg8
I-25000
sg9
g5
sg11
g5
sg12
F0.0
sg13
I-44093
sg14
g5
sg15
g5
sg16
g5
sg17
g5
sg18
I108750
sg19
g5
sg20
I431750
sg21
g5
sg22
g5
sg23
I44093
sg24
g5
sg25
I83750
sg26
F0.0
sg27
I431750
ssS'WINOKUR JR. HERBERT S'
p349
(dp350
g3
g5
sg4
g5
sg6
I1413
sg7
I00
sg8
I-25000
sg9
g5
sg11
g5
sg12
F0.0
sg13
g5
sg14
g5
sg15
g5
sg16
g5
sg17
g5
sg18
I108579
sg19
g5
sg20
g5
sg21
g5
sg22
g5
sg23
g5
sg24
g5
sg25
I84992
sg26
F0.0
sg27
g5
ssS'BROWN MICHAEL'
p351
(dp352
g3
I1486
sg4
g5
sg6
I49288
sg7
I00
sg8
g5
sg9
S'michael.brown@enron.com'
p353
sg11
g5
sg12
I0
sg13
g5
sg14
I761
sg15
g5
sg16
I41
sg17
g5
sg18
g5
sg19
g5
sg20
g5
sg21
I13
sg22
I1
sg23
g5
sg24
g5
sg25
I49288
sg26
I0
sg27
g5
ssS'BADUM JAMES P'
p354
(dp355
g3
g5
sg4
I178980
sg6
I3486
sg7
I00
sg8
g5
sg9
g5
sg11
g5
sg12
F0.0
sg13
g5
sg14
g5
sg15
g5
sg16
g5
sg17
g5
sg18
g5
sg19
g5
sg20
I257817
sg21
g5
sg22
g5
sg23
g5
sg24
g5
sg25
I182466
sg26
F0.0
sg27
I257817
ssS'HUGHES JAMES A'
p356
(dp357
g3
I719
sg4
g5
sg6
g5
sg7
I00
sg8
g5
sg9
S'james.hughes@enron.com'
p358
sg11
g5
sg12
I0
sg13
g5
sg14
I589
sg15
g5
sg16
I34
sg17
g5
sg18
g5
sg19
g5
sg20
I1118394
sg21
I35
sg22
I5
sg23
I363428
sg24
g5
sg25
g5
sg26
I0
sg27
I754966
ssS'REYNOLDS LAWRENCE'
p359
(dp360
g3
g5
sg4
I51365
sg6
I8409
sg7
I00
sg8
I-200000
sg9
g5
sg11
I156250
sg12
F0.0
sg13
I-140264
sg14
g5
sg15
g5
sg16
g5
sg17
I202052
sg18
g5
sg19
I100000
sg20
I4221891
sg21
g5
sg22
g5
sg23
I201483
sg24
I76399
sg25
I394475
sg26
F0.0
sg27
I4160672
ssS'DIMICHELE RICHARD G'
p361
(dp362
g3
g5
sg4
g5
sg6
I35812
sg7
I00
sg8
g5
sg9
S'richard.dimichele@enron.com'
p363
sg11
I694862
sg12
F0.0
sg13
g5
sg14
g5
sg15
g5
sg16
g5
sg17
I374689
sg18
g5
sg19
I1000000
sg20
I8317782
sg21
g5
sg22
g5
sg23
I126027
sg24
I262788
sg25
I2368151
sg26
F0.0
sg27
I8191755
ssS'BHATNAGAR SANJAY'
p364
(dp365
g95
I523
sg97
g96
sg98
I137864
sg99
I00
sg100
g96
sg101
S'sanjay.bhatnagar@enron.com'
p366
sg102
I0
sg103
g96
sg12
I0
sg104
I-2604490
sg105
I463
sg106
g96
sg107
I29
sg108
g96
sg109
g96
sg110
g96
sg111
I15456290
sg112
I1
sg113
I2604490
sg114
g96
sg115
I137864
sg26
I0
sg116
I15456290
ssS'CARTER REBECCA C'
p367
(dp368
g3
I312
sg4
g5
sg6
g5
sg7
I00
sg8
I-159792
sg9
S'rebecca.carter@enron.com'
p369
sg11
I75000
sg12
I0
sg13
I-307301
sg14
I196
sg15
g5
sg16
I15
sg17
I540
sg18
g5
sg19
I300000
sg20
g5
sg21
I29
sg22
I7
sg23
I307301
sg24
I261809
sg25
I477557
sg26
I0
sg27
g5
ssS'BUCHANAN HAROLD G'
p370
(dp371
g3
I1088
sg4
g5
sg6
I600
sg7
I00
sg8
g5
sg9
S'john.buchanan@enron.com'
p372
sg11
I304805
sg12
I0
sg13
g5
sg14
I23
sg15
g5
sg16
I125
sg17
I1215
sg18
g5
sg19
I500000
sg20
I1014505
sg21
I0
sg22
I0
sg23
I189041
sg24
I248017
sg25
I1054637
sg26
I0
sg27
I825464
ssS'YEAP SOON'
p373
(dp374
g3
g5
sg4
g5
sg6
I55097
sg7
I00
sg8
g5
sg9
g5
sg11
g5
sg12
F0.0
sg13
g5
sg14
g5
sg15
g5
sg16
g5
sg17
g5
sg18
g5
sg19
g5
sg20
I192758
sg21
g5
sg22
g5
sg23
g5
sg24
g5
sg25
I55097
sg26
F0.0
sg27
I192758
ssS'MURRAY JULIA H'
p375
(dp376
g3
I2192
sg4
g5
sg6
I57580
sg7
I00
sg8
g5
sg9
S'julia.murray@enron.com'
p377
sg11
I125000
sg12
I0
sg13
g5
sg14
I395
sg15
g5
sg16
I45
sg17
I330
sg18
g5
sg19
I400000
sg20
I597461
sg21
I11
sg22
I2
sg23
I196983
sg24
I229284
sg25
I812194
sg26
I0
sg27
I400478
ssS'GARLAND C KEVIN'
p378
(dp379
g3
I209
sg4
g5
sg6
I48405
sg7
I00
sg8
g5
sg9
S'kevin.garland@enron.com'
p380
sg11
I375304
sg12
I0
sg13
g5
sg14
I178
sg15
g5
sg16
I44
sg17
I60814
sg18
g5
sg19
I850000
sg20
I896153
sg21
I10
sg22
I27
sg23
I259907
sg24
I231946
sg25
I1566469
sg26
I0
sg27
I636246
ssS'DODSON KEITH'
p381
(dp382
g3
I176
sg4
g5
sg6
I28164
sg7
I00
sg8
g5
sg9
S'keith.dodson@enron.com'
p383
sg11
g5
sg12
I0
sg13
g5
sg14
I114
sg15
g5
sg16
I14
sg17
I774
sg18
g5
sg19
I70000
sg20
g5
sg21
I10
sg22
I3
sg23
g5
sg24
I221003
sg25
I319941
sg26
I0
sg27
g5
ssS'YEAGER F SCOTT'
p384
(dp385
g3
g5
sg4
g5
sg6
I53947
sg7
I01
sg8
g5
sg9
S'scott.yeager@enron.com'
p386
sg11
g5
sg12
F0.0
sg13
g5
sg14
g5
sg15
g5
sg16
g5
sg17
I147950
sg18
g5
sg19
g5
sg20
I11884758
sg21
g5
sg22
g5
sg23
I3576206
sg24
I158403
sg25
I360300
sg26
F0.0
sg27
I8308552
ssS'HIRKO JOSEPH'
p387
(dp388
g3
g5
sg4
I10259
sg6
I77978
sg7
I01
sg8
g5
sg9
S'joe.hirko@enron.com'
p389
sg11
g5
sg12
F0.0
sg13
g5
sg14
g5
sg15
g5
sg16
g5
sg17
I2856
sg18
g5
sg19
g5
sg20
I30766064
sg21
g5
sg22
g5
sg23
g5
sg24
g5
sg25
I91093
sg26
F0.0
sg27
I30766064
ssS'DIETRICH JANET R'
p390
(dp391
g3
I2572
sg4
g5
sg6
I3475
sg7
I00
sg8
g5
sg9
S'janet.dietrich@enron.com'
p392
sg11
I556416
sg12
I0
sg13
g5
sg14
I1902
sg15
g5
sg16
I63
sg17
I473
sg18
g5
sg19
I600000
sg20
I1865087
sg21
I305
sg22
I14
sg23
I315068
sg24
I250100
sg25
I1410464
sg26
I0
sg27
I1550019
ssS'DERRICK JR. JAMES V'
p393
(dp394
g3
I2181
sg4
g5
sg6
I51124
sg7
I00
sg8
I-1284000
sg9
S'james.derrick@enron.com'
p395
sg11
I484000
sg12
I0
sg13
I-1787380
sg14
I1401
sg15
g5
sg16
I909
sg17
I7482
sg18
g5
sg19
I800000
sg20
I8831913
sg21
I64
sg22
I20
sg23
I1787380
sg24
I492375
sg25
I550981
sg26
I0
sg27
I8831913
ssS'FREVERT MARK A'
p396
(dp397
g3
I3275
sg4
I6426990
sg6
I86987
sg7
I00
sg8
I-3367011
sg9
S'mark.frevert@enron.com'
p398
sg11
I1617011
sg12
I0
sg13
g5
sg14
I2979
sg15
I2000000
sg16
I21
sg17
I7427621
sg18
g5
sg19
I2000000
sg20
I14622185
sg21
I242
sg22
I6
sg23
I4188667
sg24
I1060932
sg25
I17252530
sg26
I0
sg27
I10433518
ssS'PAI LOU L'
p399
(dp400
g3
g5
sg4
g5
sg6
I32047
sg7
I00
sg8
g5
sg9
S'lou.pai@enron.com'
p401
sg11
g5
sg12
F0.0
sg13
g5
sg14
g5
sg15
g5
sg16
g5
sg17
I1829457
sg18
g5
sg19
I1000000
sg20
I23817930
sg21
g5
sg22
g5
sg23
I8453763
sg24
I261879
sg25
I3123383
sg26
F0.0
sg27
I15364167
ssS'BAY FRANKLIN R'
p402
(dp403
g3
g5
sg4
I260455
sg6
I129142
sg7
I00
sg8
I-201641
sg9
S'frank.bay@enron.com'
p404
sg11
g5
sg12
F0.0
sg13
I-82782
sg14
g5
sg15
g5
sg16
g5
sg17
I69
sg18
g5
sg19
I400000
sg20
I63014
sg21
g5
sg22
g5
sg23
I145796
sg24
I239671
sg25
I827696
sg26
F0.0
sg27
g5
ssS'HAYSLETT RODERICK J'
p405
(dp406
g3
I2649
sg4
g5
sg6
g5
sg7
I00
sg8
g5
sg9
S'rod.hayslett@enron.com'
p407
sg11
g5
sg12
I0
sg13
g5
sg14
I571
sg15
g5
sg16
I1061
sg17
g5
sg18
g5
sg19
g5
sg20
I346663
sg21
I35
sg22
I38
sg23
I346663
sg24
g5
sg25
g5
sg26
I0
sg27
g5
ssS'FUGH JOHN L'
p408
(dp409
g3
g5
sg4
I50591
sg6
g5
sg7
I00
sg8
g5
sg9
g5
sg11
g5
sg12
F0.0
sg13
g5
sg14
g5
sg15
g5
sg16
g5
sg17
g5
sg18
g5
sg19
g5
sg20
I176378
sg21
g5
sg22
g5
sg23
g5
sg24
g5
sg25
I50591
sg26
F0.0
sg27
I176378
ssS'FALLON JAMES B'
p410
(dp411
g3
I1755
sg4
g5
sg6
I95924
sg7
I00
sg8
g5
sg9
S'jim.fallon@enron.com'
p412
sg11
I374347
sg12
I0
sg13
g5
sg14
I1604
sg15
g5
sg16
I75
sg17
I401481
sg18
g5
sg19
I2500000
sg20
I2332399
sg21
I42
sg22
I37
sg23
I1392142
sg24
I304588
sg25
I3676340
sg26
I0
sg27
I940257
ssS'KOENIG MARK E'
p413
(dp414
g3
I2374
sg4
g5
sg6
I127017
sg7
I01
sg8
g5
sg9
S'mark.koenig@enron.com'
p415
sg11
I300000
sg12
I0
sg13
g5
sg14
I2271
sg15
g5
sg16
I61
sg17
I150458
sg18
g5
sg19
I700000
sg20
I1920055
sg21
I53
sg22
I15
sg23
I1248318
sg24
I309946
sg25
I1587421
sg26
I0
sg27
I671737
ssS'SAVAGE FRANK'
p416
(dp417
g3
g5
sg4
g5
sg6
g5
sg7
I00
sg8
I-121284
sg9
g5
sg11
g5
sg12
F0.0
sg13
g5
sg14
g5
sg15
g5
sg16
g5
sg17
g5
sg18
I125034
sg19
g5
sg20
g5
sg21
g5
sg22
g5
sg23
g5
sg24
g5
sg25
I3750
sg26
F0.0
sg27
g5
ssS'IZZO LAWRENCE L'
p418
(dp419
g3
I496
sg4
g5
sg6
I28093
sg7
I00
sg8
g5
sg9
S'larry.izzo@enron.com'
p420
sg11
I312500
sg12
I0
sg13
g5
sg14
I437
sg15
g5
sg16
I19
sg17
I1553729
sg18
g5
sg19
g5
sg20
I5819980
sg21
I28
sg22
I5
sg23
I3654808
sg24
I85274
sg25
I1979596
sg26
I0
sg27
I2165172
ssS'TILNEY ELIZABETH A'
p421
(dp422
g3
I460
sg4
g5
sg6
g5
sg7
I00
sg8
I-575000
sg9
S'elizabeth.tilney@enron.com'
p423
sg11
I275000
sg12
I0
sg13
g5
sg14
I379
sg15
g5
sg16
I19
sg17
I152055
sg18
g5
sg19
I300000
sg20
I1168042
sg21
I10
sg22
I11
sg23
I576792
sg24
I247338
sg25
I399393
sg26
I0
sg27
I591250
ssS'MARTIN AMANDA K'
p424
(dp425
g3
I1522
sg4
I85430
sg6
I8211
sg7
I00
sg8
g5
sg9
S'a..martin@enron.com'
p426
sg11
I5145434
sg12
I0
sg13
g5
sg14
I477
sg15
g5
sg16
I230
sg17
I2818454
sg18
g5
sg19
g5
sg20
I2070306
sg21
I8
sg22
I0
sg23
g5
sg24
I349487
sg25
I8407016
sg26
I0
sg27
I2070306
ssS'BUY RICHARD B'
p427
(dp428
g3
I3523
sg4
I649584
sg6
g5
sg7
I00
sg8
I-694862
sg9
S'rick.buy@enron.com'
p429
sg11
I769862
sg12
I0
sg13
g5
sg14
I2333
sg15
g5
sg16
I1053
sg17
I400572
sg18
g5
sg19
I900000
sg20
I3444470
sg21
I156
sg22
I71
sg23
I901657
sg24
I330546
sg25
I2355702
sg26
I0
sg27
I2542813
ssS'GRAMM WENDY L'
p430
(dp431
g3
g5
sg4
g5
sg6
g5
sg7
I00
sg8
g5
sg9
g5
sg11
g5
sg12
F0.0
sg13
g5
sg14
g5
sg15
g5
sg16
g5
sg17
g5
sg18
I119292
sg19
g5
sg20
g5
sg21
g5
sg22
g5
sg23
g5
sg24
g5
sg25
I119292
sg26
F0.0
sg27
g5
ssS'CAUSEY RICHARD A'
p432
(dp433
g3
I1892
sg4
g5
sg6
I30674
sg7
I01
sg8
I-235000
sg9
S'richard.causey@enron.com'
p434
sg11
I350000
sg12
I0
sg13
g5
sg14
I1585
sg15
g5
sg16
I49
sg17
I307895
sg18
g5
sg19
I1000000
sg20
I2502063
sg21
I58
sg22
I12
sg23
I2502063
sg24
I415189
sg25
I1868758
sg26
I0
sg27
g5
ssS'TAYLOR MITCHELL S'
p435
(dp436
g3
I533
sg4
I227449
sg6
g5
sg7
I00
sg8
g5
sg9
S'mitchell.taylor@enron.com'
p437
sg11
g5
sg12
I0
sg13
g5
sg14
I300
sg15
g5
sg16
I29
sg17
g5
sg18
g5
sg19
I600000
sg20
I3745048
sg21
I0
sg22
I0
sg23
I563798
sg24
I265214
sg25
I1092663
sg26
I0
sg27
I3181250
ssS'DONAHUE JR JEFFREY M'
p438
(dp439
g3
I865
sg4
g5
sg6
I96268
sg7
I00
sg8
I-300000
sg9
S'jeff.donahue@enron.com'
p440
sg11
g5
sg12
I0
sg13
g5
sg14
I772
sg15
g5
sg16
I22
sg17
I891
sg18
g5
sg19
I800000
sg20
I1080988
sg21
I188
sg22
I11
sg23
I315068
sg24
I278601
sg25
I875760
sg26
I0
sg27
I765920
ssS'GLISAN JR BEN F'
p441
(dp442
g3
I873
sg4
g5
sg6
I125978
sg7
I01
sg8
g5
sg9
S'ben.glisan@enron.com'
p443
sg11
I71023
sg12
I0
sg13
g5
sg14
I874
sg15
g5
sg16
I16
sg17
I200308
sg18
g5
sg19
I600000
sg20
I778546
sg21
I52
sg22
I6
sg23
I393818
sg24
I274975
sg25
I1272284
sg26
I0
sg27
I384728
ss.